; Function Attrs: mustprogress nofree norecurse nounwind willreturn uwtable
define void @_ZN4cvc56parser7CommandC2ESt10shared_ptrINS0_3CmdEE(ptr nocapture noundef nonnull writeonly align 8 dereferenceable(16) %this, ptr nocapture noundef readonly %cmd) unnamed_addr #11 align 2 personality ptr @__gxx_personality_v0 {
entry:
  %0 = load ptr, ptr %cmd, align 8
  store ptr %0, ptr %this, align 8
  %_M_refcount.i.i = getelementptr inbounds i8, ptr %this, i64 8
  %_M_refcount3.i.i = getelementptr inbounds i8, ptr %cmd, i64 8
  %1 = load ptr, ptr %_M_refcount3.i.i, align 8
  store ptr %1, ptr %_M_refcount.i.i, align 8
  %cmp.not.i.i.i = icmp eq ptr %1, null
  br i1 %cmp.not.i.i.i, label %_ZNSt10shared_ptrIN4cvc56parser3CmdEEC2ERKS3_.exit, label %if.then.i.i.i

if.then.i.i.i:                                    ; preds = %entry
  %_M_use_count.i.i.i.i = getelementptr inbounds i8, ptr %1, i64 8
  %2 = load i8, ptr @__libc_single_threaded, align 1
  %tobool.i.i.not.i.i.i.i = icmp eq i8 %2, 0
  br i1 %tobool.i.i.not.i.i.i.i, label %if.else.i.i.i.i.i, label %if.then.i.i.i.i.i

if.then.i.i.i.i.i:                                ; preds = %if.then.i.i.i
  %3 = load i32, ptr %_M_use_count.i.i.i.i, align 4
  %add.i.i.i.i.i = add nsw i32 %3, 1
  store i32 %add.i.i.i.i.i, ptr %_M_use_count.i.i.i.i, align 4
  br label %_ZNSt10shared_ptrIN4cvc56parser3CmdEEC2ERKS3_.exit

if.else.i.i.i.i.i:                                ; preds = %if.then.i.i.i
  %4 = atomicrmw volatile add ptr %_M_use_count.i.i.i.i, i32 1 acq_rel, align 4
  br label %_ZNSt10shared_ptrIN4cvc56parser3CmdEEC2ERKS3_.exit

_ZNSt10shared_ptrIN4cvc56parser3CmdEEC2ERKS3_.exit: ; preds = %entry, %if.then.i.i.i.i.i, %if.else.i.i.i.i.i
  ret void
}